target datalayout = "e-m:e-p270:32:32-p271:32:32-p272:64:64-i64:64-i128:128-f80:128-n8:16:32:64-S128"
target triple = "x86_64-pc-linux-gnu"

@.str.10 = private unnamed_addr constant [40 x i8] c"assert.active INI setting is deprecated\00", align 1

; Function Attrs: nounwind uwtable
define internal zeroext i1 @php_must_emit_ini_deprecation(i32 noundef %0) #0 {
  %2 = alloca i32, align 4
  store i32 %0, ptr %2, align 4
  %3 = load i32, ptr %2, align 4
  %4 = icmp ne i32 %3, 8
  br i1 %4, label %5, label %11

5:                                                ; preds = %1
  %6 = load i32, ptr %2, align 4
  %7 = icmp ne i32 %6, 2
  br i1 %7, label %8, label %11

8:                                                ; preds = %5
  %9 = load i32, ptr %2, align 4
  %10 = icmp ne i32 %9, 64
  br label %11

11:                                               ; preds = %8, %5, %1
  %12 = phi i1 [ false, %5 ], [ false, %1 ], [ %10, %8 ]
  ret i1 %12
}

; Function Attrs: nounwind uwtable
define internal i32 @OnUpdateActiveBool(ptr noundef %0, ptr noundef %1, ptr noundef %2, ptr noundef %3, ptr noundef %4, i32 noundef %5) #0 {
  %7 = alloca ptr, align 8
  %8 = alloca ptr, align 8
  %9 = alloca ptr, align 8
  %10 = alloca ptr, align 8
  %11 = alloca ptr, align 8
  %12 = alloca i32, align 4
  %13 = alloca ptr, align 8
  store ptr %0, ptr %7, align 8
  store ptr %1, ptr %8, align 8
  store ptr %2, ptr %9, align 8
  store ptr %3, ptr %10, align 8
  store ptr %4, ptr %11, align 8
  store i32 %5, ptr %12, align 4
  %14 = load ptr, ptr %10, align 8
  %15 = load ptr, ptr %9, align 8
  %16 = ptrtoint ptr %15 to i64
  %17 = getelementptr inbounds i8, ptr %14, i64 %16
  store ptr %17, ptr %13, align 8
  %18 = load ptr, ptr %8, align 8
  %19 = call zeroext i1 @zend_ini_parse_bool(ptr noundef %18)
  %20 = load ptr, ptr %13, align 8
  %21 = zext i1 %19 to i8
  store i8 %21, ptr %20, align 1
  %22 = load i32, ptr %12, align 4
  %23 = call zeroext i1 @php_must_emit_ini_deprecation(i32 noundef %22)
  br i1 %23, label %24, label %29

24:                                               ; preds = %6
  %25 = load ptr, ptr %13, align 8
  %26 = load i8, ptr %25, align 1
  %27 = trunc i8 %26 to i1
  br i1 %27, label %29, label %28

28:                                               ; preds = %24
  call void (ptr, i32, ptr, ...) @php_error_docref(ptr noundef null, i32 noundef 8192, ptr noundef @.str.10)
  br label %29

29:                                               ; preds = %28, %24, %6
  ret i32 0
}